target datalayout = "e-m:e-p270:32:32-p271:32:32-p272:64:64-i64:64-i128:128-f80:128-n8:16:32:64-S128"
target triple = "x86_64-unknown-linux-gnu"

%struct.DSA_SIG_st = type { ptr, ptr }

; Function Attrs: nounwind uwtable
define hidden void @DSA_SIG_free(ptr noundef %sig) #0 {
entry:
  %sig.addr = alloca ptr, align 8
  store ptr %sig, ptr %sig.addr, align 8
  %0 = load ptr, ptr %sig.addr, align 8
  %tobool = icmp ne ptr %0, null
  br i1 %tobool, label %if.end, label %if.then

if.then:                                          ; preds = %entry
  br label %return

if.end:                                           ; preds = %entry
  %1 = load ptr, ptr %sig.addr, align 8
  %r = getelementptr inbounds %struct.DSA_SIG_st, ptr %1, i32 0, i32 0
  %2 = load ptr, ptr %r, align 8
  call void @BN_free(ptr noundef %2)
  %3 = load ptr, ptr %sig.addr, align 8
  %s = getelementptr inbounds %struct.DSA_SIG_st, ptr %3, i32 0, i32 1
  %4 = load ptr, ptr %s, align 8
  call void @BN_free(ptr noundef %4)
  %5 = load ptr, ptr %sig.addr, align 8
  call void @free(ptr noundef %5) #8
  br label %return

return:                                           ; preds = %if.end, %if.then
  ret void
}