; Function Attrs: nounwind uwtable
define hidden void @DSA_SIG_free(ptr noundef %sig) local_unnamed_addr #0 {
entry:
  %tobool.not = icmp eq ptr %sig, null
  br i1 %tobool.not, label %return, label %if.end

if.end:                                           ; preds = %entry
  %0 = load ptr, ptr %sig, align 8
  tail call void @BN_free(ptr noundef %0) #8
  %s = getelementptr inbounds nuw i8, ptr %sig, i64 8
  %1 = load ptr, ptr %s, align 8
  tail call void @BN_free(ptr noundef %1) #8
  tail call void @free(ptr noundef nonnull %sig) #8
  br label %return

return:                                           ; preds = %entry, %if.end
  ret void
}